target datalayout = "e-m:e-p270:32:32-p271:32:32-p272:64:64-i64:64-i128:128-f80:128-n8:16:32:64-S128"
target triple = "x86_64-pc-linux-gnu"

%struct.VLC = type { i32, ptr, i32, i32 }
%struct.VLCElem = type { %union.anon }
%union.anon = type { %struct.anon }
%struct.anon = type { i16, i16 }

@.str.1 = private unnamed_addr constant [30 x i8] c"Assertion %s failed at %s:%d\0A\00", align 1
@.str.2 = private unnamed_addr constant [12 x i8] c"index < 256\00", align 1
@.str.3 = private unnamed_addr constant [24 x i8] c"libavcodec/atrac3plus.c\00", align 1
@tables_data = internal global [154276 x %struct.VLCElem] zeroinitializer, align 16

; Function Attrs: cold nounwind optsize uwtable
define internal void @build_canonical_huff(ptr noundef %0, ptr noundef %1, ptr noundef %2, ptr noundef %3) #0 {
  %5 = alloca ptr, align 8
  %6 = alloca ptr, align 8
  %7 = alloca ptr, align 8
  %8 = alloca ptr, align 8
  %9 = alloca i32, align 4
  %10 = alloca i32, align 4
  %11 = alloca [256 x i8], align 16
  %12 = alloca i32, align 4
  %13 = alloca i32, align 4
  store ptr %0, ptr %5, align 8, !tbaa !8
  store ptr %1, ptr %6, align 8, !tbaa !21
  store ptr %2, ptr %7, align 8, !tbaa !24
  store ptr %3, ptr %8, align 8, !tbaa !26
  call void @llvm.lifetime.start.p0(i64 4, ptr %9) #11
  call void @llvm.lifetime.start.p0(i64 4, ptr %10) #11
  call void @llvm.lifetime.start.p0(i64 256, ptr %11) #11
  call void @llvm.lifetime.start.p0(i64 4, ptr %12) #11
  store i32 0, ptr %12, align 4, !tbaa !4
  call void @llvm.lifetime.start.p0(i64 4, ptr %13) #11
  store i32 1, ptr %13, align 4, !tbaa !4
  br label %14

14:                                               ; preds = %45, %4
  %15 = load i32, ptr %13, align 4, !tbaa !4
  %16 = icmp sle i32 %15, 12
  br i1 %16, label %18, label %17

17:                                               ; preds = %14
  call void @llvm.lifetime.end.p0(i64 4, ptr %13) #11
  br label %48

18:                                               ; preds = %14
  %19 = load ptr, ptr %5, align 8, !tbaa !8
  %20 = getelementptr inbounds nuw i8, ptr %19, i32 1
  store ptr %20, ptr %5, align 8, !tbaa !8
  %21 = load i8, ptr %19, align 1, !tbaa !14
  %22 = zext i8 %21 to i32
  store i32 %22, ptr %9, align 4, !tbaa !4
  br label %23

23:                                               ; preds = %41, %18
  %24 = load i32, ptr %9, align 4, !tbaa !4
  %25 = icmp sgt i32 %24, 0
  br i1 %25, label %26, label %44

26:                                               ; preds = %23
  br label %27

27:                                               ; preds = %26
  %28 = load i32, ptr %12, align 4, !tbaa !4
  %29 = icmp slt i32 %28, 256
  br i1 %29, label %31, label %30

30:                                               ; preds = %27
  call void (ptr, i32, ptr, ...) @av_log(ptr noundef null, i32 noundef 0, ptr noundef @.str.1, ptr noundef @.str.2, ptr noundef @.str.3, i32 noundef 59)
  call void @abort() #13
  unreachable

31:                                               ; preds = %27
  br label %32

32:                                               ; preds = %31
  br label %33

33:                                               ; preds = %32
  %34 = load i32, ptr %13, align 4, !tbaa !4
  %35 = trunc i32 %34 to i8
  %36 = load i32, ptr %12, align 4, !tbaa !4
  %37 = sext i32 %36 to i64
  %38 = getelementptr inbounds [256 x i8], ptr %11, i64 0, i64 %37
  store i8 %35, ptr %38, align 1, !tbaa !14
  %39 = load i32, ptr %12, align 4, !tbaa !4
  %40 = add nsw i32 %39, 1
  store i32 %40, ptr %12, align 4, !tbaa !4
  br label %41

41:                                               ; preds = %33
  %42 = load i32, ptr %9, align 4, !tbaa !4
  %43 = add nsw i32 %42, -1
  store i32 %43, ptr %9, align 4, !tbaa !4
  br label %23, !llvm.loop !28

44:                                               ; preds = %23
  br label %45

45:                                               ; preds = %44
  %46 = load i32, ptr %13, align 4, !tbaa !4
  %47 = add nsw i32 %46, 1
  store i32 %47, ptr %13, align 4, !tbaa !4
  br label %14, !llvm.loop !29

48:                                               ; preds = %17
  %49 = load i32, ptr %12, align 4, !tbaa !4
  %50 = sub nsw i32 %49, 1
  %51 = sext i32 %50 to i64
  %52 = getelementptr inbounds [256 x i8], ptr %11, i64 0, i64 %51
  %53 = load i8, ptr %52, align 1, !tbaa !14
  %54 = zext i8 %53 to i32
  store i32 %54, ptr %10, align 4, !tbaa !4
  %55 = load ptr, ptr %7, align 8, !tbaa !24
  %56 = load i32, ptr %55, align 4, !tbaa !4
  %57 = sext i32 %56 to i64
  %58 = getelementptr inbounds [154276 x %struct.VLCElem], ptr @tables_data, i64 0, i64 %57
  %59 = load ptr, ptr %8, align 8, !tbaa !26
  %60 = getelementptr inbounds nuw %struct.VLC, ptr %59, i32 0, i32 1
  store ptr %58, ptr %60, align 8, !tbaa !30
  %61 = load i32, ptr %10, align 4, !tbaa !4
  %62 = shl i32 1, %61
  %63 = load ptr, ptr %8, align 8, !tbaa !26
  %64 = getelementptr inbounds nuw %struct.VLC, ptr %63, i32 0, i32 3
  store i32 %62, ptr %64, align 4, !tbaa !32
  %65 = load ptr, ptr %8, align 8, !tbaa !26
  %66 = load i32, ptr %10, align 4, !tbaa !4
  %67 = load i32, ptr %12, align 4, !tbaa !4
  %68 = getelementptr inbounds [256 x i8], ptr %11, i64 0, i64 0
  %69 = load ptr, ptr %6, align 8, !tbaa !21
  %70 = load ptr, ptr %69, align 8, !tbaa !8
  %71 = call i32 @ff_vlc_init_from_lengths(ptr noundef %65, i32 noundef %66, i32 noundef %67, ptr noundef %68, i32 noundef 1, ptr noundef %70, i32 noundef 1, i32 noundef 1, i32 noundef 0, i32 noundef 1, ptr noundef null)
  %72 = load i32, ptr %10, align 4, !tbaa !4
  %73 = shl i32 1, %72
  %74 = load ptr, ptr %7, align 8, !tbaa !24
  %75 = load i32, ptr %74, align 4, !tbaa !4
  %76 = add nsw i32 %75, %73
  store i32 %76, ptr %74, align 4, !tbaa !4
  %77 = load i32, ptr %12, align 4, !tbaa !4
  %78 = load ptr, ptr %6, align 8, !tbaa !21
  %79 = load ptr, ptr %78, align 8, !tbaa !8
  %80 = sext i32 %77 to i64
  %81 = getelementptr inbounds i8, ptr %79, i64 %80
  store ptr %81, ptr %78, align 8, !tbaa !8
  call void @llvm.lifetime.end.p0(i64 4, ptr %12) #11
  call void @llvm.lifetime.end.p0(i64 256, ptr %11) #11
  call void @llvm.lifetime.end.p0(i64 4, ptr %10) #11
  call void @llvm.lifetime.end.p0(i64 4, ptr %9) #11
  ret void
}