; Function Attrs: cold nounwind optsize uwtable
define internal fastcc void @build_canonical_huff(ptr noundef readonly captures(none) %0, ptr noundef nonnull captures(none) %1, ptr noundef nonnull captures(none) %2, ptr noundef %3) unnamed_addr #0 {
  %5 = alloca [256 x i8], align 16
  call void @llvm.lifetime.start.p0(i64 256, ptr nonnull %5) #8
  br label %25

6:                                                ; preds = %._crit_edge
  %7 = add nsw i32 %.1.lcssa, -1
  %8 = sext i32 %7 to i64
  %9 = getelementptr inbounds [256 x i8], ptr %5, i64 0, i64 %8
  %10 = load i8, ptr %9, align 1, !tbaa !14
  %11 = zext i8 %10 to i32
  %12 = load i32, ptr %2, align 4, !tbaa !4
  %13 = sext i32 %12 to i64
  %14 = getelementptr inbounds [154276 x %struct.VLCElem], ptr @tables_data, i64 0, i64 %13
  %15 = getelementptr inbounds nuw i8, ptr %3, i64 8
  store ptr %14, ptr %15, align 8, !tbaa !21
  %16 = shl nuw i32 1, %11
  %17 = getelementptr inbounds nuw i8, ptr %3, i64 20
  store i32 %16, ptr %17, align 4, !tbaa !23
  %18 = load ptr, ptr %1, align 8, !tbaa !8
  %19 = call i32 @ff_vlc_init_from_lengths(ptr noundef %3, i32 noundef %11, i32 noundef %.1.lcssa, ptr noundef nonnull %5, i32 noundef 1, ptr noundef %18, i32 noundef 1, i32 noundef 1, i32 noundef 0, i32 noundef 1, ptr noundef null) #8
  %20 = load i32, ptr %2, align 4, !tbaa !4
  %21 = add nsw i32 %20, %16
  store i32 %21, ptr %2, align 4, !tbaa !4
  %22 = load ptr, ptr %1, align 8, !tbaa !8
  %23 = sext i32 %.1.lcssa to i64
  %24 = getelementptr inbounds i8, ptr %22, i64 %23
  store ptr %24, ptr %1, align 8, !tbaa !8
  call void @llvm.lifetime.end.p0(i64 256, ptr nonnull %5) #8
  ret void

25:                                               ; preds = %4, %._crit_edge
  %.030 = phi i32 [ 1, %4 ], [ %38, %._crit_edge ]
  %.02129 = phi i32 [ 0, %4 ], [ %.1.lcssa, %._crit_edge ]
  %.02228 = phi ptr [ %0, %4 ], [ %26, %._crit_edge ]
  %26 = getelementptr inbounds nuw i8, ptr %.02228, i64 1
  %27 = load i8, ptr %.02228, align 1, !tbaa !14
  %.not = icmp eq i8 %27, 0
  br i1 %.not, label %._crit_edge, label %.lr.ph

.lr.ph:                                           ; preds = %25
  %28 = zext i8 %27 to i32
  %29 = trunc nuw i32 %.030 to i8
  %30 = sext i32 %.02129 to i64
  %smax = tail call i32 @llvm.smax.i32(i32 %.02129, i32 256)
  %wide.trip.count = zext nneg i32 %smax to i64
  br label %31

31:                                               ; preds = %.lr.ph, %33
  %indvars.iv = phi i64 [ %30, %.lr.ph ], [ %indvars.iv.next, %33 ]
  %.02326 = phi i32 [ %28, %.lr.ph ], [ %35, %33 ]
  %exitcond.not = icmp eq i64 %indvars.iv, %wide.trip.count
  br i1 %exitcond.not, label %32, label %33

32:                                               ; preds = %31
  tail call void (ptr, i32, ptr, ...) @av_log(ptr noundef null, i32 noundef 0, ptr noundef nonnull @.str.1, ptr noundef nonnull @.str.2, ptr noundef nonnull @.str.3, i32 noundef 59) #8
  tail call void @abort() #10
  unreachable

33:                                               ; preds = %31
  %34 = getelementptr inbounds [256 x i8], ptr %5, i64 0, i64 %indvars.iv
  store i8 %29, ptr %34, align 1, !tbaa !14
  %indvars.iv.next = add nsw i64 %indvars.iv, 1
  %35 = add nsw i32 %.02326, -1
  %36 = icmp sgt i32 %.02326, 1
  br i1 %36, label %31, label %._crit_edge.loopexit, !llvm.loop !24

._crit_edge.loopexit:                             ; preds = %33
  %37 = trunc nsw i64 %indvars.iv.next to i32
  br label %._crit_edge

._crit_edge:                                      ; preds = %._crit_edge.loopexit, %25
  %.1.lcssa = phi i32 [ %.02129, %25 ], [ %37, %._crit_edge.loopexit ]
  %38 = add nuw nsw i32 %.030, 1
  %exitcond32.not = icmp eq i32 %38, 13
  br i1 %exitcond32.not, label %6, label %25, !llvm.loop !25
}